; Function Attrs: nounwind uwtable
define internal range(i32 -1, 1) i32 @gitdiff_delete(ptr noundef readonly captures(none) %0, ptr noundef %1, ptr noundef captures(none) initializes((24, 28), (36, 40)) %2) #0 {
  %4 = alloca ptr, align 8
  %5 = getelementptr inbounds nuw i8, ptr %2, i64 36
  store i32 1, ptr %5, align 4, !tbaa !68
  %6 = getelementptr inbounds nuw i8, ptr %2, i64 8
  %7 = load ptr, ptr %6, align 8, !tbaa !64
  tail call void @free(ptr noundef %7) #21
  %8 = getelementptr inbounds nuw i8, ptr %2, i64 16
  %9 = load ptr, ptr %8, align 8, !tbaa !63
  %.not.i = icmp eq ptr %9, null
  br i1 %.not.i, label %xstrdup_or_null.exit, label %10

10:                                               ; preds = %3
  %11 = tail call ptr @xstrdup(ptr noundef nonnull %9) #21
  br label %xstrdup_or_null.exit

xstrdup_or_null.exit:                             ; preds = %3, %10
  %12 = phi ptr [ %11, %10 ], [ null, %3 ]
  store ptr %12, ptr %6, align 8, !tbaa !64
  %13 = getelementptr inbounds nuw i8, ptr %0, i64 8
  %14 = load i32, ptr %13, align 8, !tbaa !77
  %15 = getelementptr inbounds nuw i8, ptr %2, i64 24
  call void @llvm.lifetime.start.p0(i64 8, ptr nonnull %4) #21
  %16 = call i64 @strtoul(ptr noundef %1, ptr noundef nonnull %4, i32 noundef 8) #21
  %17 = trunc i64 %16 to i32
  store i32 %17, ptr %15, align 4, !tbaa !34
  %18 = load ptr, ptr %4, align 8, !tbaa !32
  %19 = icmp eq ptr %18, %1
  br i1 %19, label %26, label %20

20:                                               ; preds = %xstrdup_or_null.exit
  %21 = load i8, ptr %18, align 1, !tbaa !53
  %22 = zext i8 %21 to i64
  %23 = getelementptr inbounds nuw [256 x i8], ptr @sane_ctype, i64 0, i64 %22
  %24 = load i8, ptr %23, align 1, !tbaa !53
  %25 = and i8 %24, 1
  %.not.i.i = icmp eq i8 %25, 0
  br i1 %.not.i.i, label %26, label %31

26:                                               ; preds = %20, %xstrdup_or_null.exit
  %27 = load i32, ptr @git_gettext_enabled, align 4, !tbaa !34
  %.not4.i.i.i = icmp eq i32 %27, 0
  br i1 %.not4.i.i.i, label %_.exit.i.i, label %28

28:                                               ; preds = %26
  %29 = tail call ptr @dcgettext(ptr noundef null, ptr noundef nonnull @.str.131, i32 noundef 5) #21
  br label %_.exit.i.i

_.exit.i.i:                                       ; preds = %28, %26
  %.0.i.i.i = phi ptr [ %29, %28 ], [ @.str.131, %26 ]
  %30 = tail call i32 (ptr, ...) @error(ptr noundef %.0.i.i.i, i32 noundef %14, ptr noundef %1) #21
  br label %gitdiff_oldmode.exit

31:                                               ; preds = %20
  %32 = trunc i64 %16 to i16
  %trunc.i.i.i = and i16 %32, -4096
  switch i16 %trunc.i.i.i, label %37 [
    i16 -32768, label %33
    i16 -24576, label %canon_mode.exit.i.i
    i16 16384, label %36
  ]

33:                                               ; preds = %31
  %34 = and i32 %17, 64
  %.not.i.i.i = icmp eq i32 %34, 0
  %35 = select i1 %.not.i.i.i, i32 33188, i32 33261
  br label %canon_mode.exit.i.i

36:                                               ; preds = %31
  br label %canon_mode.exit.i.i

37:                                               ; preds = %31
  br label %canon_mode.exit.i.i

canon_mode.exit.i.i:                              ; preds = %37, %36, %33, %31
  %.0.i8.i.i = phi i32 [ %35, %33 ], [ 16384, %36 ], [ 57344, %37 ], [ 40960, %31 ]
  store i32 %.0.i8.i.i, ptr %15, align 4, !tbaa !34
  br label %gitdiff_oldmode.exit

gitdiff_oldmode.exit:                             ; preds = %_.exit.i.i, %canon_mode.exit.i.i
  %.0.i.i = phi i32 [ -1, %_.exit.i.i ], [ 0, %canon_mode.exit.i.i ]
  call void @llvm.lifetime.end.p0(i64 8, ptr nonnull %4) #21
  ret i32 %.0.i.i
}